target datalayout = "e-m:e-p270:32:32-p271:32:32-p272:64:64-i64:64-i128:128-f80:128-n8:16:32:64-S128"
target triple = "x86_64-pc-linux-gnu"

%struct.X509_VERIFY_PARAM_st = type { ptr, i64, i32, i64, i32, i32, i32, i32, ptr, ptr, i32, ptr, ptr, i64, ptr, i64 }

@.str = private unnamed_addr constant [34 x i8] c"../openssl/crypto/x509/x509_vpm.c\00", align 1
@__func__.X509_VERIFY_PARAM_set1_policies = private unnamed_addr constant [32 x i8] c"X509_VERIFY_PARAM_set1_policies\00", align 1

; Function Attrs: inlinehint nounwind uwtable
define internal ptr @ossl_check_ASN1_OBJECT_type(ptr noundef %0) #3 {
  %2 = alloca ptr, align 8
  store ptr %0, ptr %2, align 8, !tbaa !35
  %3 = load ptr, ptr %2, align 8, !tbaa !35
  ret ptr %3
}

; Function Attrs: inlinehint nounwind uwtable
define internal ptr @ossl_check_const_ASN1_OBJECT_sk_type(ptr noundef %0) #3 {
  %2 = alloca ptr, align 8
  store ptr %0, ptr %2, align 8, !tbaa !22
  %3 = load ptr, ptr %2, align 8, !tbaa !22
  ret ptr %3
}

; Function Attrs: inlinehint nounwind uwtable
define internal ptr @ossl_check_ASN1_OBJECT_freefunc_type(ptr noundef %0) #3 {
  %2 = alloca ptr, align 8
  store ptr %0, ptr %2, align 8, !tbaa !23
  %3 = load ptr, ptr %2, align 8, !tbaa !23
  ret ptr %3
}

; Function Attrs: inlinehint nounwind uwtable
define internal ptr @ossl_check_ASN1_OBJECT_sk_type(ptr noundef %0) #3 {
  %2 = alloca ptr, align 8
  store ptr %0, ptr %2, align 8, !tbaa !22
  %3 = load ptr, ptr %2, align 8, !tbaa !22
  ret ptr %3
}

; Function Attrs: nounwind uwtable
define i32 @X509_VERIFY_PARAM_set1_policies(ptr noundef %0, ptr noundef %1) #0 {
  %3 = alloca i32, align 4
  %4 = alloca ptr, align 8
  %5 = alloca ptr, align 8
  %6 = alloca i32, align 4
  %7 = alloca ptr, align 8
  %8 = alloca ptr, align 8
  %9 = alloca i32, align 4
  store ptr %0, ptr %4, align 8, !tbaa !3
  store ptr %1, ptr %5, align 8, !tbaa !22
  call void @llvm.lifetime.start.p0(i64 4, ptr %6) #6
  call void @llvm.lifetime.start.p0(i64 8, ptr %7) #6
  call void @llvm.lifetime.start.p0(i64 8, ptr %8) #6
  %10 = load ptr, ptr %4, align 8, !tbaa !3
  %11 = icmp eq ptr %10, null
  br i1 %11, label %12, label %13

12:                                               ; preds = %2
  call void @ERR_new()
  call void @ERR_set_debug(ptr noundef @.str, i32 noundef 357, ptr noundef @__func__.X509_VERIFY_PARAM_set1_policies)
  call void (i32, i32, ptr, ...) @ERR_set_error(i32 noundef 11, i32 noundef 786690, ptr noundef null)
  store i32 0, ptr %3, align 4
  store i32 1, ptr %9, align 4
  br label %70

13:                                               ; preds = %2
  %14 = load ptr, ptr %4, align 8, !tbaa !3
  %15 = getelementptr inbounds nuw %struct.X509_VERIFY_PARAM_st, ptr %14, i32 0, i32 8
  %16 = load ptr, ptr %15, align 8, !tbaa !17
  %17 = call ptr @ossl_check_ASN1_OBJECT_sk_type(ptr noundef %16)
  %18 = call ptr @ossl_check_ASN1_OBJECT_freefunc_type(ptr noundef @ASN1_OBJECT_free)
  call void @OPENSSL_sk_pop_free(ptr noundef %17, ptr noundef %18)
  %19 = load ptr, ptr %5, align 8, !tbaa !22
  %20 = icmp eq ptr %19, null
  br i1 %20, label %21, label %24

21:                                               ; preds = %13
  %22 = load ptr, ptr %4, align 8, !tbaa !3
  %23 = getelementptr inbounds nuw %struct.X509_VERIFY_PARAM_st, ptr %22, i32 0, i32 8
  store ptr null, ptr %23, align 8, !tbaa !17
  store i32 1, ptr %3, align 4
  store i32 1, ptr %9, align 4
  br label %70

24:                                               ; preds = %13
  %25 = call ptr @OPENSSL_sk_new_null()
  %26 = load ptr, ptr %4, align 8, !tbaa !3
  %27 = getelementptr inbounds nuw %struct.X509_VERIFY_PARAM_st, ptr %26, i32 0, i32 8
  store ptr %25, ptr %27, align 8, !tbaa !17
  %28 = load ptr, ptr %4, align 8, !tbaa !3
  %29 = getelementptr inbounds nuw %struct.X509_VERIFY_PARAM_st, ptr %28, i32 0, i32 8
  %30 = load ptr, ptr %29, align 8, !tbaa !17
  %31 = icmp eq ptr %30, null
  br i1 %31, label %32, label %33

32:                                               ; preds = %24
  store i32 0, ptr %3, align 4
  store i32 1, ptr %9, align 4
  br label %70

33:                                               ; preds = %24
  store i32 0, ptr %6, align 4, !tbaa !28
  br label %34

34:                                               ; preds = %62, %33
  %35 = load i32, ptr %6, align 4, !tbaa !28
  %36 = load ptr, ptr %5, align 8, !tbaa !22
  %37 = call ptr @ossl_check_const_ASN1_OBJECT_sk_type(ptr noundef %36)
  %38 = call i32 @OPENSSL_sk_num(ptr noundef %37)
  %39 = icmp slt i32 %35, %38
  br i1 %39, label %40, label %65

40:                                               ; preds = %34
  %41 = load ptr, ptr %5, align 8, !tbaa !22
  %42 = call ptr @ossl_check_const_ASN1_OBJECT_sk_type(ptr noundef %41)
  %43 = load i32, ptr %6, align 4, !tbaa !28
  %44 = call ptr @OPENSSL_sk_value(ptr noundef %42, i32 noundef %43)
  store ptr %44, ptr %7, align 8, !tbaa !35
  %45 = load ptr, ptr %7, align 8, !tbaa !35
  %46 = call ptr @OBJ_dup(ptr noundef %45)
  store ptr %46, ptr %8, align 8, !tbaa !35
  %47 = load ptr, ptr %8, align 8, !tbaa !35
  %48 = icmp eq ptr %47, null
  br i1 %48, label %49, label %50

49:                                               ; preds = %40
  store i32 0, ptr %3, align 4
  store i32 1, ptr %9, align 4
  br label %70

50:                                               ; preds = %40
  %51 = load ptr, ptr %4, align 8, !tbaa !3
  %52 = getelementptr inbounds nuw %struct.X509_VERIFY_PARAM_st, ptr %51, i32 0, i32 8
  %53 = load ptr, ptr %52, align 8, !tbaa !17
  %54 = call ptr @ossl_check_ASN1_OBJECT_sk_type(ptr noundef %53)
  %55 = load ptr, ptr %8, align 8, !tbaa !35
  %56 = call ptr @ossl_check_ASN1_OBJECT_type(ptr noundef %55)
  %57 = call i32 @OPENSSL_sk_push(ptr noundef %54, ptr noundef %56)
  %58 = icmp ne i32 %57, 0
  br i1 %58, label %61, label %59

59:                                               ; preds = %50
  %60 = load ptr, ptr %8, align 8, !tbaa !35
  call void @ASN1_OBJECT_free(ptr noundef %60)
  store i32 0, ptr %3, align 4
  store i32 1, ptr %9, align 4
  br label %70

61:                                               ; preds = %50
  br label %62

62:                                               ; preds = %61
  %63 = load i32, ptr %6, align 4, !tbaa !28
  %64 = add nsw i32 %63, 1
  store i32 %64, ptr %6, align 4, !tbaa !28
  br label %34, !llvm.loop !37

65:                                               ; preds = %34
  %66 = load ptr, ptr %4, align 8, !tbaa !3
  %67 = getelementptr inbounds nuw %struct.X509_VERIFY_PARAM_st, ptr %66, i32 0, i32 3
  %68 = load i64, ptr %67, align 8, !tbaa !30
  %69 = or i64 %68, 128
  store i64 %69, ptr %67, align 8, !tbaa !30
  store i32 1, ptr %3, align 4
  store i32 1, ptr %9, align 4
  br label %70

70:                                               ; preds = %65, %59, %49, %32, %21, %12
  call void @llvm.lifetime.end.p0(i64 8, ptr %8) #6
  call void @llvm.lifetime.end.p0(i64 8, ptr %7) #6
  call void @llvm.lifetime.end.p0(i64 4, ptr %6) #6
  %71 = load i32, ptr %3, align 4
  ret i32 %71
}