; Function Attrs: nounwind uwtable
define range(i32 0, 2) i32 @X509_VERIFY_PARAM_set1_policies(ptr noundef captures(address_is_null) %0, ptr noundef %1) local_unnamed_addr #0 {
  %3 = icmp eq ptr %0, null
  br i1 %3, label %4, label %5

4:                                                ; preds = %2
  tail call void @ERR_new() #9
  tail call void @ERR_set_debug(ptr noundef nonnull @.str, i32 noundef 357, ptr noundef nonnull @__func__.X509_VERIFY_PARAM_set1_policies) #9
  tail call void (i32, i32, ptr, ...) @ERR_set_error(i32 noundef 11, i32 noundef 786690, ptr noundef null) #9
  br label %.loopexit

5:                                                ; preds = %2
  %6 = getelementptr inbounds nuw i8, ptr %0, i64 48
  %7 = load ptr, ptr %6, align 8, !tbaa !15
  tail call void @OPENSSL_sk_pop_free(ptr noundef %7, ptr noundef nonnull @ASN1_OBJECT_free) #9
  %8 = icmp eq ptr %1, null
  br i1 %8, label %9, label %10

9:                                                ; preds = %5
  store ptr null, ptr %6, align 8, !tbaa !15
  br label %.loopexit

10:                                               ; preds = %5
  %11 = tail call ptr @OPENSSL_sk_new_null() #9
  store ptr %11, ptr %6, align 8, !tbaa !15
  %12 = icmp eq ptr %11, null
  br i1 %12, label %.loopexit, label %.preheader

.preheader:                                       ; preds = %10
  %13 = tail call i32 @OPENSSL_sk_num(ptr noundef nonnull %1) #9
  %14 = icmp sgt i32 %13, 0
  br i1 %14, label %.lr.ph, label %._crit_edge

15:                                               ; preds = %22
  %16 = add nuw nsw i32 %.01722, 1
  %17 = tail call i32 @OPENSSL_sk_num(ptr noundef nonnull %1) #9
  %18 = icmp slt i32 %16, %17
  br i1 %18, label %.lr.ph, label %._crit_edge, !llvm.loop !30

.lr.ph:                                           ; preds = %.preheader, %15
  %.01722 = phi i32 [ %16, %15 ], [ 0, %.preheader ]
  %19 = tail call ptr @OPENSSL_sk_value(ptr noundef nonnull %1, i32 noundef %.01722) #9
  %20 = tail call ptr @OBJ_dup(ptr noundef %19) #9
  %21 = icmp eq ptr %20, null
  br i1 %21, label %.loopexit, label %22

22:                                               ; preds = %.lr.ph
  %23 = load ptr, ptr %6, align 8, !tbaa !15
  %24 = tail call i32 @OPENSSL_sk_push(ptr noundef %23, ptr noundef nonnull %20) #9
  %.not = icmp eq i32 %24, 0
  br i1 %.not, label %25, label %15

25:                                               ; preds = %22
  tail call void @ASN1_OBJECT_free(ptr noundef nonnull %20) #9
  br label %.loopexit

._crit_edge:                                      ; preds = %15, %.preheader
  %26 = getelementptr inbounds nuw i8, ptr %0, i64 24
  %27 = load i64, ptr %26, align 8, !tbaa !22
  %28 = or i64 %27, 128
  store i64 %28, ptr %26, align 8, !tbaa !22
  br label %.loopexit

.loopexit:                                        ; preds = %.lr.ph, %10, %._crit_edge, %25, %9, %4
  %.0 = phi i32 [ 0, %4 ], [ 1, %9 ], [ 0, %25 ], [ 1, %._crit_edge ], [ 0, %10 ], [ 0, %.lr.ph ]
  ret i32 %.0
}